(lp0
(S'cppflags'
p1
ccopy_reg
_reconstructor
p2
(cino.utils
SpaceList
p3
c__builtin__
list
p4
(lp5
S'-mmcu=atmega328p'
p6
aS'-DF_CPU=16000000L'
p7
aS'-DARDUINO=154'
p8
aS'-I/Applications/Arduino.app/Contents/Resources/Java/hardware/arduino/avr/cores/arduino'
p9
aS'-ffunction-sections'
p10
aS'-fdata-sections'
p11
aS'-g'
p12
aS'-Os'
p13
aS'-w'
p14
aS'-I/Applications/Arduino.app/Contents/Resources/Java/hardware/arduino/avr/variants/standard'
p15
aS'-Ilib/TinyGPSPlus'
p16
aS'-Ilib/Rowind'
p17
aS'-Ilib/Types'
p18
aS'-Ilib/HMC6343'
p19
aS'-I/Applications/Arduino.app/Contents/Resources/Java/libraries/Servo'
p20
aS'-I/Applications/Arduino.app/Contents/Resources/Java/libraries/Servo/arch'
p21
aS'-I/Applications/Arduino.app/Contents/Resources/Java/libraries/Servo/src'
p22
aS'-I/Applications/Arduino.app/Contents/Resources/Java/libraries/Servo/arch/avr'
p23
aS'-I/Applications/Arduino.app/Contents/Resources/Java/libraries/SoftwareSerial'
p24
aS'-I/Applications/Arduino.app/Contents/Resources/Java/libraries/SoftwareSerial/arch'
p25
aS'-I/Applications/Arduino.app/Contents/Resources/Java/libraries/SoftwareSerial/src'
p26
aS'-I/Applications/Arduino.app/Contents/Resources/Java/libraries/SoftwareSerial/arch/avr'
p27
aS'-I/Applications/Arduino.app/Contents/Resources/Java/libraries/Robot_Control'
p28
aS'-I/Applications/Arduino.app/Contents/Resources/Java/libraries/Robot_Control/arch'
p29
aS'-I/Applications/Arduino.app/Contents/Resources/Java/libraries/Robot_Control/src'
p30
aS'-I/Applications/Arduino.app/Contents/Resources/Java/libraries/Robot_Control/arch/avr'
p31
aS'-I/Applications/Arduino.app/Contents/Resources/Java/libraries/Robot_Control/arch/avr/utility'
p32
aS'-I/Applications/Arduino.app/Contents/Resources/Java/libraries/Robot_Control/arch/avr/utility'
p33
aS'-I/Applications/Arduino.app/Contents/Resources/Java/hardware/arduino/avr/cores/arduino'
p34
aS'-I/Applications/Arduino.app/Contents/Resources/Java/hardware/arduino/avr/cores/arduino/avr-libc'
p35
atp36
Rp37
tp38
a(S'version.txt'
p39
S'/Applications/Arduino.app/Contents/Resources/Java/lib/version.txt'
p40
tp41
a(S'used_libs'
p42
(lp43
S'lib/TinyGPSPlus'
p44
aS'lib/Rowind'
p45
aS'lib/Types'
p46
aS'lib/HMC6343'
p47
aS'/Applications/Arduino.app/Contents/Resources/Java/libraries/Servo'
p48
aS'/Applications/Arduino.app/Contents/Resources/Java/libraries/SoftwareSerial'
p49
aS'/Applications/Arduino.app/Contents/Resources/Java/libraries/Robot_Control'
p50
aS'/Applications/Arduino.app/Contents/Resources/Java/hardware/arduino/avr/cores/arduino'
p51
atp52
a(S'cc'
p53
S'/Applications/Arduino.app/Contents/Resources/Java/hardware/tools/avr/bin/avr-gcc'
p54
tp55
a(S'make'
p56
S'/Applications/Arduino.app/Contents/Resources/Java/hardware/tools/avr/bin/make'
p57
tp58
a(S'build_dir'
p59
S'.build/uno'
p60
tp61
a(S'arduino_core_dir'
p62
g51
tp63
a(S'boards.txt'
p64
(lp65
S'/Applications/Arduino.app/Contents/Resources/Java/hardware/arduino/boards.txt'
p66
aS'/Applications/Arduino.app/Contents/Resources/Java/hardware/arduino/avr/boards.txt'
p67
atp68
a(S'cxxflags'
p69
g2
(g3
g4
(lp70
S'-fno-exceptions'
p71
atp72
Rp73
tp74
a(S'arduino_variants_dir'
p75
S'/Applications/Arduino.app/Contents/Resources/Java/hardware/arduino/avr/variants'
p76
tp77
a(S'deps'
p78
g2
(g3
g4
(lp79
S'.build/uno/src/dependencies.d'
p80
aS'.build/uno/Robot_Control/dependencies.d'
p81
aS'.build/uno/TinyGPSPlus/dependencies.d'
p82
aS'.build/uno/Rowind/dependencies.d'
p83
aS'.build/uno/arduino/dependencies.d'
p84
aS'.build/uno/Types/dependencies.d'
p85
aS'.build/uno/SoftwareSerial/dependencies.d'
p86
aS'.build/uno/HMC6343/dependencies.d'
p87
aS'.build/uno/Servo/dependencies.d'
p88
atp89
Rp90
tp91
a(S'ar'
p92
S'/Applications/Arduino.app/Contents/Resources/Java/hardware/tools/avr/bin/avr-ar'
p93
tp94
a(S'names'
p95
(dp96
S'cpp'
p97
S'%s.cpp'
p98
sS'obj'
p99
S'%s.o'
p100
sg78
S'%s.d'
p101
sS'lib'
p102
S'lib%s.a'
p103
stp104
a(S'cflags'
p105
g2
(g3
g4
(lp106
tp107
Rp108
tp109
a(S'ldflags'
p110
g2
(g3
g4
(lp111
g6
aS'-Wl,-Os'
p112
aS'-Wl,--gc-sections'
p113
atp114
Rp115
tp116
a(S'arduino_libraries_dir'
p117
S'/Applications/Arduino.app/Contents/Resources/Java/libraries'
p118
tp119
a(S'arduino_lib_version'
p120
g2
(cino.environment
Version
p121
c__builtin__
tuple
p122
(I1
I5
I4
tp123
tp124
Rp125
tp126
a(S'objcopy'
p127
S'/Applications/Arduino.app/Contents/Resources/Java/hardware/tools/avr/bin/avr-objcopy'
p128
tp129
a(S'board_models'
p130
cino.environment
BoardModels
p131
((lp132
(lp133
S'menu'
p134
a(dp135
S'cpu'
p136
S'Processor'
p137
sS'_coredir'
p138
S'/Applications/Arduino.app/Contents/Resources/Java/hardware/arduino/avr'
p139
saa(lp140
S'yun'
p141
a(dp142
S'name'
p143
S'Arduino Y\xc3\xban'
p144
sS'vid'
p145
(dp146
S'1'
p147
S'0x2341'
p148
sS'0'
p149
S'0x2341'
p150
ssS'pid'
p151
(dp152
g147
S'0x8041'
p153
sg149
S'0x0041'
p154
ssS'upload'
p155
(dp156
S'protocol'
p157
S'avr109'
p158
sS'disable_flushing'
p159
S'true'
p160
sS'tool'
p161
S'avrdude'
p162
sS'maximum_data_size'
p163
S'2560'
p164
sS'via_ssh'
p165
S'true'
p166
sS'maximum_size'
p167
S'28672'
p168
sS'use_1200bps_touch'
p169
S'true'
p170
sS'speed'
p171
S'57600'
p172
sS'wait_for_upload_port'
p173
S'true'
p174
ssS'build'
p175
(dp176
S'core'
p177
S'arduino'
p178
sS'f_cpu'
p179
S'16000000L'
p180
sS'vid'
p181
S'0x2341'
p182
sS'usb_product'
p183
S'"Arduino Yun"'
p184
sS'pid'
p185
S'0x8041'
p186
sS'extra_flags'
p187
S'{build.usb_flags}'
p188
sS'board'
p189
S'AVR_YUN'
p190
sS'mcu'
p191
S'atmega32u4'
p192
sS'variant'
p193
S'leonardo'
p194
ssg138
S'/Applications/Arduino.app/Contents/Resources/Java/hardware/arduino/avr'
p195
sS'bootloader'
p196
(dp197
S'extended_fuses'
p198
S'0xcb'
p199
sS'high_fuses'
p200
S'0xd8'
p201
sS'low_fuses'
p202
S'0xff'
p203
sS'lock_bits'
p204
S'0x2F'
p205
sS'tool'
p206
S'avrdude'
p207
sS'file'
p208
S'caterina/Caterina-Yun.hex'
p209
sS'unlock_bits'
p210
S'0x3F'
p211
ssaa(lp212
S'uno'
p213
a(dp214
S'name'
p215
S'Arduino Uno'
p216
sS'vid'
p217
(dp218
g149
S'0x2341'
p219
ssS'pid'
p220
(dp221
g149
S'0x0043'
p222
ssS'upload'
p223
(dp224
S'speed'
p225
S'115200'
p226
sS'tool'
p227
S'avrdude'
p228
sS'protocol'
p229
S'arduino'
p230
sS'maximum_size'
p231
S'32256'
p232
sS'maximum_data_size'
p233
S'2048'
p234
ssS'build'
p235
(dp236
S'core'
p237
S'arduino'
p238
sS'mcu'
p239
S'atmega328p'
p240
sS'f_cpu'
p241
S'16000000L'
p242
sS'board'
p243
S'AVR_UNO'
p244
sS'variant'
p245
S'standard'
p246
ssg138
S'/Applications/Arduino.app/Contents/Resources/Java/hardware/arduino/avr'
p247
sS'bootloader'
p248
(dp249
S'extended_fuses'
p250
S'0x05'
p251
sS'high_fuses'
p252
S'0xDE'
p253
sS'low_fuses'
p254
S'0xFF'
p255
sS'lock_bits'
p256
S'0x0F'
p257
sS'tool'
p258
S'avrdude'
p259
sS'file'
p260
S'optiboot/optiboot_atmega328.hex'
p261
sS'unlock_bits'
p262
S'0x3F'
p263
ssaa(lp264
S'atmega328diecimila'
p265
a(dp266
S'name'
p267
S'Arduino Duemilanove or Diecimila'
p268
sS'menu'
p269
(dp270
S'cpu'
p271
(dp272
S'atmega168'
p273
(dp274
S'bootloader'
p275
(dp276
S'extended_fuses'
p277
S'0x00'
p278
sS'high_fuses'
p279
S'0xdd'
p280
sS'file'
p281
S'atmega/ATmegaBOOT_168_diecimila.hex'
p282
ssS'upload'
p283
(dp284
S'maximum_size'
p285
S'14336'
p286
sS'speed'
p287
S'19200'
p288
sS'maximum_data_size'
p289
S'1024'
p290
ssS'_'
p291
S'ATmega168'
p292
sS'build'
p293
(dp294
S'mcu'
p295
S'atmega168'
p296
sssS'atmega328'
p297
(dp298
S'bootloader'
p299
(dp300
S'extended_fuses'
p301
S'0x05'
p302
sS'high_fuses'
p303
S'0xDA'
p304
sS'file'
p305
S'atmega/ATmegaBOOT_168_atmega328.hex'
p306
ssS'upload'
p307
(dp308
S'maximum_size'
p309
S'30720'
p310
sS'speed'
p311
S'57600'
p312
sS'maximum_data_size'
p313
S'2048'
p314
ssg291
S'ATmega328'
p315
sS'build'
p316
(dp317
S'mcu'
p318
S'atmega328p'
p319
sssssS'upload'
p320
(dp321
S'tool'
p322
S'avrdude'
p323
sS'protocol'
p324
S'arduino'
p325
ssS'build'
p326
(dp327
S'core'
p328
S'arduino'
p329
sS'f_cpu'
p330
S'16000000L'
p331
sS'board'
p332
S'AVR_DUEMILANOVE'
p333
sS'variant'
p334
S'standard'
p335
ssg138
S'/Applications/Arduino.app/Contents/Resources/Java/hardware/arduino/avr'
p336
sS'bootloader'
p337
(dp338
S'low_fuses'
p339
S'0xFF'
p340
sS'lock_bits'
p341
S'0x0F'
p342
sS'tool'
p343
S'avrdude'
p344
sS'unlock_bits'
p345
S'0x3F'
p346
ssaa(lp347
S'nano'
p348
a(dp349
S'name'
p350
S'Arduino Nano'
p351
sS'menu'
p352
(dp353
S'cpu'
p354
(dp355
S'atmega168'
p356
(dp357
S'bootloader'
p358
(dp359
S'low_fuses'
p360
S'0xff'
p361
sS'extended_fuses'
p362
S'0x00'
p363
sS'high_fuses'
p364
S'0xdd'
p365
sS'file'
p366
S'atmega/ATmegaBOOT_168_diecimila.hex'
p367
ssS'upload'
p368
(dp369
S'maximum_size'
p370
S'14336'
p371
sS'speed'
p372
S'19200'
p373
sS'maximum_data_size'
p374
S'1024'
p375
ssg291
S'ATmega168'
p376
sS'build'
p377
(dp378
S'mcu'
p379
S'atmega168'
p380
sssS'atmega328'
p381
(dp382
S'bootloader'
p383
(dp384
S'low_fuses'
p385
S'0xFF'
p386
sS'extended_fuses'
p387
S'0x05'
p388
sS'high_fuses'
p389
S'0xDA'
p390
sS'file'
p391
S'atmega/ATmegaBOOT_168_atmega328.hex'
p392
ssS'upload'
p393
(dp394
S'maximum_size'
p395
S'30720'
p396
sS'speed'
p397
S'57600'
p398
sS'maximum_data_size'
p399
S'2048'
p400
ssg291
S'ATmega328'
p401
sS'build'
p402
(dp403
S'mcu'
p404
S'atmega328p'
p405
sssssS'upload'
p406
(dp407
S'tool'
p408
S'avrdude'
p409
sS'protocol'
p410
S'arduino'
p411
ssS'build'
p412
(dp413
S'core'
p414
S'arduino'
p415
sS'f_cpu'
p416
S'16000000L'
p417
sS'board'
p418
S'AVR_NANO'
p419
sS'variant'
p420
S'eightanaloginputs'
p421
ssg138
S'/Applications/Arduino.app/Contents/Resources/Java/hardware/arduino/avr'
p422
sS'bootloader'
p423
(dp424
S'lock_bits'
p425
S'0x0F'
p426
sS'tool'
p427
S'avrdude'
p428
sS'unlock_bits'
p429
S'0x3F'
p430
ssaa(lp431
S'mega2560'
p432
a(dp433
S'name'
p434
S'Arduino Mega 2560 or Mega ADK'
p435
sS'vid'
p436
(dp437
g147
S'0x2341'
p438
sg149
S'0x2341'
p439
ssS'pid'
p440
(dp441
g147
S'0x003f'
p442
sg149
S'0x0044'
p443
ssS'upload'
p444
(dp445
S'speed'
p446
S'115200'
p447
sS'tool'
p448
S'avrdude'
p449
sS'protocol'
p450
S'wiring'
p451
sS'maximum_size'
p452
S'258048'
p453
sS'maximum_data_size'
p454
S'8192'
p455
ssS'build'
p456
(dp457
S'core'
p458
S'arduino'
p459
sS'mcu'
p460
S'atmega2560'
p461
sS'f_cpu'
p462
S'16000000L'
p463
sS'board'
p464
S'AVR_MEGA2560'
p465
sS'variant'
p466
S'mega'
p467
ssg138
S'/Applications/Arduino.app/Contents/Resources/Java/hardware/arduino/avr'
p468
sS'bootloader'
p469
(dp470
S'extended_fuses'
p471
S'0xFD'
p472
sS'high_fuses'
p473
S'0xD8'
p474
sS'low_fuses'
p475
S'0xFF'
p476
sS'lock_bits'
p477
S'0x0F'
p478
sS'tool'
p479
S'avrdude'
p480
sS'file'
p481
S'stk500v2/stk500boot_v2_mega2560.hex'
p482
sS'unlock_bits'
p483
S'0x3F'
p484
ssS'cpu'
p485
S'2560 or ADK'
p486
saa(lp487
S'mega'
p488
a(dp489
S'name'
p490
S'Arduino Mega (ATmega1280)'
p491
sS'upload'
p492
(dp493
S'speed'
p494
S'57600'
p495
sS'tool'
p496
S'avrdude'
p497
sS'protocol'
p498
S'arduino'
p499
sS'maximum_size'
p500
S'126976'
p501
sS'maximum_data_size'
p502
S'8192'
p503
ssS'build'
p504
(dp505
S'core'
p506
S'arduino'
p507
sS'mcu'
p508
S'atmega1280'
p509
sS'f_cpu'
p510
S'16000000L'
p511
sS'board'
p512
S'AVR_MEGA'
p513
sS'variant'
p514
S'mega'
p515
ssg138
S'/Applications/Arduino.app/Contents/Resources/Java/hardware/arduino/avr'
p516
sS'bootloader'
p517
(dp518
S'extended_fuses'
p519
S'0xF5'
p520
sS'high_fuses'
p521
S'0xDA'
p522
sS'low_fuses'
p523
S'0xFF'
p524
sS'lock_bits'
p525
S'0x0F'
p526
sS'tool'
p527
S'avrdude'
p528
sS'file'
p529
S'atmega/ATmegaBOOT_168_atmega1280.hex'
p530
sS'unlock_bits'
p531
S'0x3F'
p532
ssS'cpu'
p533
S'ATmega1280'
p534
saa(lp535
S'leonardo'
p536
a(dp537
S'name'
p538
S'Arduino Leonardo'
p539
sS'vid'
p540
(dp541
g147
S'0x2341'
p542
sg149
S'0x2341'
p543
ssS'pid'
p544
(dp545
g147
S'0x8036'
p546
sg149
S'0x0036'
p547
ssS'upload'
p548
(dp549
S'protocol'
p550
S'avr109'
p551
sS'disable_flushing'
p552
S'true'
p553
sS'tool'
p554
S'avrdude'
p555
sS'maximum_data_size'
p556
S'2560'
p557
sS'maximum_size'
p558
S'28672'
p559
sS'use_1200bps_touch'
p560
S'true'
p561
sS'speed'
p562
S'57600'
p563
sS'wait_for_upload_port'
p564
S'true'
p565
ssS'build'
p566
(dp567
S'core'
p568
S'arduino'
p569
sS'f_cpu'
p570
S'16000000L'
p571
sS'vid'
p572
S'0x2341'
p573
sS'usb_product'
p574
S'"Arduino Leonardo"'
p575
sS'pid'
p576
S'0x8036'
p577
sS'extra_flags'
p578
S'{build.usb_flags}'
p579
sS'board'
p580
S'AVR_LEONARDO'
p581
sS'mcu'
p582
S'atmega32u4'
p583
sS'variant'
p584
S'leonardo'
p585
ssg138
S'/Applications/Arduino.app/Contents/Resources/Java/hardware/arduino/avr'
p586
sS'bootloader'
p587
(dp588
S'extended_fuses'
p589
S'0xcb'
p590
sS'high_fuses'
p591
S'0xd8'
p592
sS'low_fuses'
p593
S'0xff'
p594
sS'lock_bits'
p595
S'0x2F'
p596
sS'tool'
p597
S'avrdude'
p598
sS'file'
p599
S'caterina/Caterina-Leonardo.hex'
p600
sS'unlock_bits'
p601
S'0x3F'
p602
ssaa(lp603
S'micro'
p604
a(dp605
S'build'
p606
(dp607
S'core'
p608
S'arduino'
p609
sS'f_cpu'
p610
S'16000000L'
p611
sS'vid'
p612
S'0x2341'
p613
sS'usb_product'
p614
S'"Arduino Micro"'
p615
sS'pid'
p616
S'0x8037'
p617
sS'extra_flags'
p618
S'{build.usb_flags}'
p619
sS'board'
p620
S'AVR_MICRO'
p621
sS'mcu'
p622
S'atmega32u4'
p623
sS'variant'
p624
S'micro'
p625
ssS'bootloader'
p626
(dp627
S'extended_fuses'
p628
S'0xcb'
p629
sS'high_fuses'
p630
S'0xd8'
p631
sS'low_fuses'
p632
S'0xff'
p633
sS'lock_bits'
p634
S'0x2F'
p635
sS'tool'
p636
S'avrdude'
p637
sS'file'
p638
S'caterina/Caterina-Micro.hex'
p639
sS'unlock_bits'
p640
S'0x3F'
p641
ssS'upload'
p642
(dp643
S'protocol'
p644
S'avr109'
p645
sS'disable_flushing'
p646
S'true'
p647
sS'tool'
p648
S'avrdude'
p649
sS'maximum_data_size'
p650
S'2560'
p651
sS'maximum_size'
p652
S'28672'
p653
sS'use_1200bps_touch'
p654
S'true'
p655
sS'speed'
p656
S'57600'
p657
sS'wait_for_upload_port'
p658
S'true'
p659
ssS'name'
p660
S'Arduino Micro'
p661
sg138
S'/Applications/Arduino.app/Contents/Resources/Java/hardware/arduino/avr'
p662
saa(lp663
S'esplora'
p664
a(dp665
S'name'
p666
S'Arduino Esplora'
p667
sS'vid'
p668
(dp669
g147
S'0x2341'
p670
sg149
S'0x2341'
p671
ssS'pid'
p672
(dp673
g147
S'0x803c'
p674
sg149
S'0x003c'
p675
ssS'upload'
p676
(dp677
S'protocol'
p678
S'avr109'
p679
sS'disable_flushing'
p680
S'true'
p681
sS'tool'
p682
S'avrdude'
p683
sS'maximum_data_size'
p684
S'2560'
p685
sS'maximum_size'
p686
S'28672'
p687
sS'use_1200bps_touch'
p688
S'true'
p689
sS'speed'
p690
S'57600'
p691
sS'wait_for_upload_port'
p692
S'true'
p693
ssS'build'
p694
(dp695
S'core'
p696
S'arduino'
p697
sS'f_cpu'
p698
S'16000000L'
p699
sS'vid'
p700
S'0x2341'
p701
sS'usb_product'
p702
S'"Arduino Esplora"'
p703
sS'pid'
p704
S'0x803c'
p705
sS'extra_flags'
p706
S'{build.usb_flags}'
p707
sS'board'
p708
S'AVR_ESPLORA'
p709
sS'mcu'
p710
S'atmega32u4'
p711
sS'variant'
p712
S'leonardo'
p713
ssg138
S'/Applications/Arduino.app/Contents/Resources/Java/hardware/arduino/avr'
p714
sS'bootloader'
p715
(dp716
S'extended_fuses'
p717
S'0xcb'
p718
sS'high_fuses'
p719
S'0xd8'
p720
sS'low_fuses'
p721
S'0xff'
p722
sS'lock_bits'
p723
S'0x2F'
p724
sS'tool'
p725
S'avrdude'
p726
sS'file'
p727
S'caterina/Caterina-Esplora.hex'
p728
sS'unlock_bits'
p729
S'0x3F'
p730
ssaa(lp731
S'mini'
p732
a(dp733
S'name'
p734
S'Arduino Mini'
p735
sS'menu'
p736
(dp737
S'cpu'
p738
(dp739
S'atmega168'
p740
(dp741
S'bootloader'
p742
(dp743
S'extended_fuses'
p744
S'0x00'
p745
sS'high_fuses'
p746
S'0xdd'
p747
sS'file'
p748
S'atmega/ATmegaBOOT_168_ng.hex'
p749
ssS'upload'
p750
(dp751
S'maximum_size'
p752
S'14336'
p753
sS'speed'
p754
S'19200'
p755
sS'maximum_data_size'
p756
S'1024'
p757
ssg291
S'ATmega168'
p758
sS'build'
p759
(dp760
S'mcu'
p761
S'atmega168'
p762
sssS'atmega328'
p763
(dp764
S'bootloader'
p765
(dp766
S'extended_fuses'
p767
S'0x05'
p768
sS'high_fuses'
p769
S'0xd8'
p770
sS'file'
p771
S'optiboot/optiboot_atmega328-Mini.hex'
p772
ssS'upload'
p773
(dp774
S'maximum_size'
p775
S'28672'
p776
sS'speed'
p777
S'115200'
p778
sS'maximum_data_size'
p779
S'2048'
p780
ssg291
S'ATmega328'
p781
sS'build'
p782
(dp783
S'mcu'
p784
S'atmega328p'
p785
sssssS'upload'
p786
(dp787
S'tool'
p788
S'avrdude'
p789
sS'protocol'
p790
S'arduino'
p791
ssS'build'
p792
(dp793
S'core'
p794
S'arduino'
p795
sS'f_cpu'
p796
S'16000000L'
p797
sS'board'
p798
S'AVR_MINI'
p799
sS'variant'
p800
S'eightanaloginputs'
p801
ssg138
S'/Applications/Arduino.app/Contents/Resources/Java/hardware/arduino/avr'
p802
sS'bootloader'
p803
(dp804
S'low_fuses'
p805
S'0xff'
p806
sS'lock_bits'
p807
S'0x0F'
p808
sS'tool'
p809
S'avrdude'
p810
sS'unlock_bits'
p811
S'0x3F'
p812
ssaa(lp813
S'ethernet'
p814
a(dp815
S'build'
p816
(dp817
S'f_cpu'
p818
S'16000000L'
p819
sS'mcu'
p820
S'atmega328p'
p821
sS'variant'
p822
S'standard'
p823
sS'board'
p824
S'AVR_ETHERNET'
p825
sS'core'
p826
S'arduino'
p827
ssS'bootloader'
p828
(dp829
S'extended_fuses'
p830
S'0x05'
p831
sS'high_fuses'
p832
S'0xde'
p833
sS'low_fuses'
p834
S'0xff'
p835
sS'lock_bits'
p836
S'0x0F'
p837
sS'tool'
p838
S'avrdude'
p839
sS'file'
p840
S'optiboot/optiboot_atmega328.hex'
p841
sS'unlock_bits'
p842
S'0x3F'
p843
ssS'upload'
p844
(dp845
S'speed'
p846
S'115200'
p847
sS'tool'
p848
S'avrdude'
p849
sS'protocol'
p850
S'arduino'
p851
sS'maximum_size'
p852
S'32256'
p853
sS'maximum_data_size'
p854
S'2048'
p855
ssS'name'
p856
S'Arduino Ethernet'
p857
sg138
S'/Applications/Arduino.app/Contents/Resources/Java/hardware/arduino/avr'
p858
saa(lp859
S'fio'
p860
a(dp861
S'build'
p862
(dp863
S'core'
p864
S'arduino'
p865
sS'mcu'
p866
S'atmega328p'
p867
sS'f_cpu'
p868
S'8000000L'
p869
sS'board'
p870
S'AVR_FIO'
p871
sS'variant'
p872
S'eightanaloginputs'
p873
ssS'bootloader'
p874
(dp875
S'extended_fuses'
p876
S'0x05'
p877
sS'high_fuses'
p878
S'0xDA'
p879
sS'low_fuses'
p880
S'0xFF'
p881
sS'lock_bits'
p882
S'0x0F'
p883
sS'tool'
p884
S'avrdude'
p885
sS'file'
p886
S'atmega/ATmegaBOOT_168_atmega328_pro_8MHz.hex'
p887
sS'unlock_bits'
p888
S'0x3F'
p889
ssS'upload'
p890
(dp891
S'speed'
p892
S'57600'
p893
sS'tool'
p894
S'avrdude'
p895
sS'protocol'
p896
S'arduino'
p897
sS'maximum_size'
p898
S'30720'
p899
sS'maximum_data_size'
p900
S'2048'
p901
ssS'name'
p902
S'Arduino Fio'
p903
sg138
S'/Applications/Arduino.app/Contents/Resources/Java/hardware/arduino/avr'
p904
saa(lp905
S'bt'
p906
a(dp907
S'name'
p908
S'Arduino BT'
p909
sS'menu'
p910
(dp911
S'cpu'
p912
(dp913
S'atmega168'
p914
(dp915
S'bootloader'
p916
(dp917
S'extended_fuses'
p918
S'0x00'
p919
sS'high_fuses'
p920
S'0xdd'
p921
sS'file'
p922
S'bt/ATmegaBOOT_168.hex'
p923
ssS'upload'
p924
(dp925
S'maximum_size'
p926
S'14336'
p927
sS'maximum_data_size'
p928
S'1024'
p929
ssg291
S'ATmega168'
p930
sS'build'
p931
(dp932
S'mcu'
p933
S'atmega168'
p934
sssS'atmega328'
p935
(dp936
S'bootloader'
p937
(dp938
S'extended_fuses'
p939
S'0x05'
p940
sS'high_fuses'
p941
S'0xd8'
p942
sS'file'
p943
S'bt/ATmegaBOOT_168_atmega328_bt.hex'
p944
ssS'upload'
p945
(dp946
S'maximum_size'
p947
S'28672'
p948
sS'maximum_data_size'
p949
S'2048'
p950
ssg291
S'ATmega328'
p951
sS'build'
p952
(dp953
S'mcu'
p954
S'atmega328p'
p955
sssssS'upload'
p956
(dp957
S'speed'
p958
S'19200'
p959
sS'tool'
p960
S'avrdude'
p961
sS'protocol'
p962
S'arduino'
p963
sS'disable_flushing'
p964
S'true'
p965
ssS'build'
p966
(dp967
S'core'
p968
S'arduino'
p969
sS'f_cpu'
p970
S'16000000L'
p971
sS'board'
p972
S'AVR_BT'
p973
sS'variant'
p974
S'eightanaloginputs'
p975
ssg138
S'/Applications/Arduino.app/Contents/Resources/Java/hardware/arduino/avr'
p976
sS'bootloader'
p977
(dp978
S'low_fuses'
p979
S'0xff'
p980
sS'lock_bits'
p981
S'0x0F'
p982
sS'tool'
p983
S'avrdude'
p984
sS'unlock_bits'
p985
S'0x3F'
p986
ssaa(lp987
S'LilyPadUSB'
p988
a(dp989
S'build'
p990
(dp991
S'core'
p992
S'arduino'
p993
sS'f_cpu'
p994
S'8000000L'
p995
sS'vid'
p996
S'0x1B4F'
p997
sS'usb_product'
p998
S'"LilyPad USB"'
p999
sS'pid'
p1000
S'0x9208'
p1001
sS'extra_flags'
p1002
S'{build.usb_flags}'
p1003
sS'board'
p1004
S'AVR_LILYPAD_USB'
p1005
sS'mcu'
p1006
S'atmega32u4'
p1007
sS'variant'
p1008
S'leonardo'
p1009
ssS'bootloader'
p1010
(dp1011
S'extended_fuses'
p1012
S'0xce'
p1013
sS'high_fuses'
p1014
S'0xd8'
p1015
sS'low_fuses'
p1016
S'0xff'
p1017
sS'lock_bits'
p1018
S'0x2F'
p1019
sS'tool'
p1020
S'avrdude'
p1021
sS'file'
p1022
S'caterina-LilyPadUSB/Caterina-LilyPadUSB.hex'
p1023
sS'unlock_bits'
p1024
S'0x3F'
p1025
ssS'upload'
p1026
(dp1027
S'protocol'
p1028
S'avr109'
p1029
sS'disable_flushing'
p1030
S'true'
p1031
sS'tool'
p1032
S'avrdude'
p1033
sS'maximum_data_size'
p1034
S'2560'
p1035
sS'maximum_size'
p1036
S'28672'
p1037
sS'use_1200bps_touch'
p1038
S'true'
p1039
sS'speed'
p1040
S'57600'
p1041
sS'wait_for_upload_port'
p1042
S'true'
p1043
ssS'name'
p1044
S'LilyPad Arduino USB'
p1045
sg138
S'/Applications/Arduino.app/Contents/Resources/Java/hardware/arduino/avr'
p1046
saa(lp1047
S'lilypad'
p1048
a(dp1049
S'name'
p1050
S'LilyPad Arduino'
p1051
sS'menu'
p1052
(dp1053
S'cpu'
p1054
(dp1055
S'atmega168'
p1056
(dp1057
S'bootloader'
p1058
(dp1059
S'low_fuses'
p1060
S'0xe2'
p1061
sS'extended_fuses'
p1062
S'0x00'
p1063
sS'high_fuses'
p1064
S'0xdd'
p1065
sS'file'
p1066
S'lilypad/LilyPadBOOT_168.hex'
p1067
ssS'upload'
p1068
(dp1069
S'maximum_size'
p1070
S'14336'
p1071
sS'speed'
p1072
S'19200'
p1073
sS'maximum_data_size'
p1074
S'1024'
p1075
ssg291
S'ATmega168'
p1076
sS'build'
p1077
(dp1078
S'mcu'
p1079
S'atmega168'
p1080
sssS'atmega328'
p1081
(dp1082
S'bootloader'
p1083
(dp1084
S'low_fuses'
p1085
S'0xFF'
p1086
sS'extended_fuses'
p1087
S'0x05'
p1088
sS'high_fuses'
p1089
S'0xDA'
p1090
sS'file'
p1091
S'atmega/ATmegaBOOT_168_atmega328_pro_8MHz.hex'
p1092
ssS'upload'
p1093
(dp1094
S'maximum_size'
p1095
S'30720'
p1096
sS'speed'
p1097
S'57600'
p1098
sS'maximum_data_size'
p1099
S'2048'
p1100
ssg291
S'ATmega328'
p1101
sS'build'
p1102
(dp1103
S'mcu'
p1104
S'atmega328p'
p1105
sssssS'upload'
p1106
(dp1107
S'tool'
p1108
S'avrdude'
p1109
sS'protocol'
p1110
S'arduino'
p1111
ssS'build'
p1112
(dp1113
S'core'
p1114
S'arduino'
p1115
sS'f_cpu'
p1116
S'8000000L'
p1117
sS'board'
p1118
S'AVR_LILYPAD'
p1119
sS'variant'
p1120
S'standard'
p1121
ssg138
S'/Applications/Arduino.app/Contents/Resources/Java/hardware/arduino/avr'
p1122
sS'bootloader'
p1123
(dp1124
S'lock_bits'
p1125
S'0x0F'
p1126
sS'tool'
p1127
S'avrdude'
p1128
sS'unlock_bits'
p1129
S'0x3F'
p1130
ssaa(lp1131
S'pro'
p1132
a(dp1133
S'name'
p1134
S'Arduino Pro or Pro Mini'
p1135
sS'menu'
p1136
(dp1137
S'cpu'
p1138
(dp1139
S'16MHzatmega328'
p1140
(dp1141
S'bootloader'
p1142
(dp1143
S'low_fuses'
p1144
S'0xFF'
p1145
sS'extended_fuses'
p1146
S'0x05'
p1147
sS'high_fuses'
p1148
S'0xDA'
p1149
sS'file'
p1150
S'atmega/ATmegaBOOT_168_atmega328.hex'
p1151
ssS'upload'
p1152
(dp1153
S'maximum_size'
p1154
S'30720'
p1155
sS'speed'
p1156
S'57600'
p1157
sS'maximum_data_size'
p1158
S'2048'
p1159
ssg291
S'ATmega328 (5V, 16 MHz)'
p1160
sS'build'
p1161
(dp1162
S'mcu'
p1163
S'atmega328p'
p1164
sS'f_cpu'
p1165
S'16000000L'
p1166
sssS'8MHzatmega328'
p1167
(dp1168
S'bootloader'
p1169
(dp1170
S'low_fuses'
p1171
S'0xFF'
p1172
sS'extended_fuses'
p1173
S'0x05'
p1174
sS'high_fuses'
p1175
S'0xDA'
p1176
sS'file'
p1177
S'atmega/ATmegaBOOT_168_atmega328_pro_8MHz.hex'
p1178
ssS'upload'
p1179
(dp1180
S'maximum_size'
p1181
S'30720'
p1182
sS'speed'
p1183
S'57600'
p1184
sS'maximum_data_size'
p1185
S'2048'
p1186
ssg291
S'ATmega328 (3.3V, 8 MHz)'
p1187
sS'build'
p1188
(dp1189
S'mcu'
p1190
S'atmega328p'
p1191
sS'f_cpu'
p1192
S'8000000L'
p1193
sssS'8MHzatmega168'
p1194
(dp1195
S'bootloader'
p1196
(dp1197
S'low_fuses'
p1198
S'0xc6'
p1199
sS'extended_fuses'
p1200
S'0x00'
p1201
sS'high_fuses'
p1202
S'0xdd'
p1203
sS'file'
p1204
S'atmega/ATmegaBOOT_168_pro_8MHz.hex'
p1205
ssS'upload'
p1206
(dp1207
S'maximum_size'
p1208
S'14336'
p1209
sS'speed'
p1210
S'19200'
p1211
sS'maximum_data_size'
p1212
S'1024'
p1213
ssg291
S'ATmega168 (3.3V, 8 MHz)'
p1214
sS'build'
p1215
(dp1216
S'mcu'
p1217
S'atmega168'
p1218
sS'f_cpu'
p1219
S'8000000L'
p1220
sssS'16MHzatmega168'
p1221
(dp1222
S'bootloader'
p1223
(dp1224
S'low_fuses'
p1225
S'0xff'
p1226
sS'extended_fuses'
p1227
S'0x00'
p1228
sS'high_fuses'
p1229
S'0xdd'
p1230
sS'file'
p1231
S'atmega/ATmegaBOOT_168_diecimila.hex'
p1232
ssS'upload'
p1233
(dp1234
S'maximum_size'
p1235
S'14336'
p1236
sS'speed'
p1237
S'19200'
p1238
sS'maximum_data_size'
p1239
S'1024'
p1240
ssg291
S'ATmega168 (5V, 16 MHz)'
p1241
sS'build'
p1242
(dp1243
S'mcu'
p1244
S'atmega168'
p1245
sS'f_cpu'
p1246
S'16000000L'
p1247
sssssS'upload'
p1248
(dp1249
S'tool'
p1250
S'avrdude'
p1251
sS'protocol'
p1252
S'arduino'
p1253
ssS'build'
p1254
(dp1255
S'core'
p1256
S'arduino'
p1257
sS'variant'
p1258
S'standard'
p1259
sS'board'
p1260
S'AVR_PRO'
p1261
ssg138
S'/Applications/Arduino.app/Contents/Resources/Java/hardware/arduino/avr'
p1262
sS'bootloader'
p1263
(dp1264
S'lock_bits'
p1265
S'0x0F'
p1266
sS'tool'
p1267
S'avrdude'
p1268
sS'unlock_bits'
p1269
S'0x3F'
p1270
ssaa(lp1271
S'atmegang'
p1272
a(dp1273
S'name'
p1274
S'Arduino NG or older'
p1275
sS'menu'
p1276
(dp1277
S'cpu'
p1278
(dp1279
S'atmega168'
p1280
(dp1281
S'bootloader'
p1282
(dp1283
S'low_fuses'
p1284
S'0xff'
p1285
sS'extended_fuses'
p1286
S'0x00'
p1287
sS'high_fuses'
p1288
S'0xdd'
p1289
sS'file'
p1290
S'atmega/ATmegaBOOT_168_ng.hex'
p1291
ssS'upload'
p1292
(dp1293
S'maximum_size'
p1294
S'14336'
p1295
sS'maximum_data_size'
p1296
S'1024'
p1297
ssg291
S'ATmega168'
p1298
sS'build'
p1299
(dp1300
S'mcu'
p1301
S'atmega168'
p1302
sssS'atmega8'
p1303
(dp1304
S'bootloader'
p1305
(dp1306
S'low_fuses'
p1307
S'0xdf'
p1308
sS'high_fuses'
p1309
S'0xca'
p1310
sS'file'
p1311
S'atmega8/ATmegaBOOT-prod-firmware-2009-11-07.hex'
p1312
ssS'upload'
p1313
(dp1314
S'maximum_size'
p1315
S'7168'
p1316
sS'maximum_data_size'
p1317
S'1024'
p1318
ssg291
S'ATmega8'
p1319
sS'build'
p1320
(dp1321
S'mcu'
p1322
S'atmega8'
p1323
sssssS'upload'
p1324
(dp1325
S'speed'
p1326
S'19200'
p1327
sS'tool'
p1328
S'avrdude'
p1329
sS'protocol'
p1330
S'arduino'
p1331
ssS'build'
p1332
(dp1333
S'core'
p1334
S'arduino'
p1335
sS'mcu'
p1336
S'atmegang'
p1337
sS'f_cpu'
p1338
S'16000000L'
p1339
sS'board'
p1340
S'AVR_NG'
p1341
sS'variant'
p1342
S'standard'
p1343
ssg138
S'/Applications/Arduino.app/Contents/Resources/Java/hardware/arduino/avr'
p1344
sS'bootloader'
p1345
(dp1346
S'lock_bits'
p1347
S'0x0F'
p1348
sS'tool'
p1349
S'avrdude'
p1350
sS'unlock_bits'
p1351
S'0x3F'
p1352
ssaa(lp1353
S'robotControl'
p1354
a(dp1355
S'build'
p1356
(dp1357
S'core'
p1358
S'arduino'
p1359
sS'f_cpu'
p1360
S'16000000L'
p1361
sS'vid'
p1362
S'0x2341'
p1363
sS'usb_product'
p1364
S'"Robot Control"'
p1365
sS'pid'
p1366
S'0x8038'
p1367
sS'extra_flags'
p1368
S'{build.usb_flags}'
p1369
sS'board'
p1370
S'AVR_ROBOT_CONTROL'
p1371
sS'mcu'
p1372
S'atmega32u4'
p1373
sS'variant'
p1374
S'robot_control'
p1375
ssS'bootloader'
p1376
(dp1377
S'extended_fuses'
p1378
S'0xcb'
p1379
sS'high_fuses'
p1380
S'0xd8'
p1381
sS'low_fuses'
p1382
S'0xff'
p1383
sS'lock_bits'
p1384
S'0x2F'
p1385
sS'tool'
p1386
S'avrdude'
p1387
sS'file'
p1388
S'caterina-Arduino_Robot/Caterina-Robot-Control.hex'
p1389
sS'unlock_bits'
p1390
S'0x3F'
p1391
ssS'upload'
p1392
(dp1393
S'protocol'
p1394
S'avr109'
p1395
sS'disable_flushing'
p1396
S'true'
p1397
sS'tool'
p1398
S'avrdude'
p1399
sS'maximum_size'
p1400
S'28672'
p1401
sS'use_1200bps_touch'
p1402
S'true'
p1403
sS'speed'
p1404
S'57600'
p1405
sS'data_size'
p1406
S'2560'
p1407
sS'wait_for_upload_port'
p1408
S'true'
p1409
ssS'name'
p1410
S'Arduino Robot Control'
p1411
sg138
S'/Applications/Arduino.app/Contents/Resources/Java/hardware/arduino/avr'
p1412
saa(lp1413
S'robotMotor'
p1414
a(dp1415
S'build'
p1416
(dp1417
S'core'
p1418
S'arduino'
p1419
sS'f_cpu'
p1420
S'16000000L'
p1421
sS'vid'
p1422
S'0x2341'
p1423
sS'usb_product'
p1424
S'"Robot Motor"'
p1425
sS'pid'
p1426
S'0x8039'
p1427
sS'extra_flags'
p1428
S'{build.usb_flags}'
p1429
sS'board'
p1430
S'AVR_ROBOT_MOTOR'
p1431
sS'mcu'
p1432
S'atmega32u4'
p1433
sS'variant'
p1434
S'robot_motor'
p1435
ssS'bootloader'
p1436
(dp1437
S'extended_fuses'
p1438
S'0xcb'
p1439
sS'high_fuses'
p1440
S'0xd8'
p1441
sS'low_fuses'
p1442
S'0xff'
p1443
sS'lock_bits'
p1444
S'0x2F'
p1445
sS'tool'
p1446
S'avrdude'
p1447
sS'file'
p1448
S'caterina-Arduino_Robot/Caterina-Robot-Motor.hex'
p1449
sS'unlock_bits'
p1450
S'0x3F'
p1451
ssS'upload'
p1452
(dp1453
S'protocol'
p1454
S'avr109'
p1455
sS'disable_flushing'
p1456
S'true'
p1457
sS'tool'
p1458
S'avrdude'
p1459
sS'maximum_size'
p1460
S'28672'
p1461
sS'use_1200bps_touch'
p1462
S'true'
p1463
sS'speed'
p1464
S'57600'
p1465
sS'data_size'
p1466
S'2560'
p1467
sS'wait_for_upload_port'
p1468
S'true'
p1469
ssS'name'
p1470
S'Arduino Robot Motor'
p1471
sg138
S'/Applications/Arduino.app/Contents/Resources/Java/hardware/arduino/avr'
p1472
saatp1473
Rp1474
(dp1475
S'default'
p1476
S'uno'
p1477
sbtp1478
a(S'cxx'
p1479
S'/Applications/Arduino.app/Contents/Resources/Java/hardware/tools/avr/bin/avr-g++'
p1480
tp1481
a.