(lp0
(S'cppflags'
p1
ccopy_reg
_reconstructor
p2
(cino.utils
SpaceList
p3
c__builtin__
list
p4
(lp5
S'-mmcu=atmega328p'
p6
aS'-DF_CPU=16000000L'
p7
aS'-DARDUINO=154'
p8
aS'-I/Applications/Arduino.app/Contents/Resources/Java/hardware/arduino/avr/cores/arduino'
p9
aS'-ffunction-sections'
p10
aS'-fdata-sections'
p11
aS'-g'
p12
aS'-Os'
p13
aS'-w'
p14
aS'-I/Applications/Arduino.app/Contents/Resources/Java/hardware/arduino/avr/variants/standard'
p15
aS'-Ilib/TinyGPSPlus'
p16
aS'-Ilib/Rowind'
p17
aS'-Ilib/Types'
p18
aS'-Ilib/HMC6343'
p19
aS'-I/Applications/Arduino.app/Contents/Resources/Java/libraries/Servo'
p20
aS'-I/Applications/Arduino.app/Contents/Resources/Java/libraries/Servo/arch'
p21
aS'-I/Applications/Arduino.app/Contents/Resources/Java/libraries/Servo/src'
p22
aS'-I/Applications/Arduino.app/Contents/Resources/Java/libraries/Servo/arch/avr'
p23
aS'-I/Applications/Arduino.app/Contents/Resources/Java/libraries/Servo/arch/sam'
p24
aS'-I/Applications/Arduino.app/Contents/Resources/Java/libraries/SoftwareSerial'
p25
aS'-I/Applications/Arduino.app/Contents/Resources/Java/libraries/SoftwareSerial/arch'
p26
aS'-I/Applications/Arduino.app/Contents/Resources/Java/libraries/SoftwareSerial/src'
p27
aS'-I/Applications/Arduino.app/Contents/Resources/Java/libraries/SoftwareSerial/arch/avr'
p28
aS'-I/Applications/Arduino.app/Contents/Resources/Java/libraries/Robot_Control'
p29
aS'-I/Applications/Arduino.app/Contents/Resources/Java/libraries/Robot_Control/arch'
p30
aS'-I/Applications/Arduino.app/Contents/Resources/Java/libraries/Robot_Control/src'
p31
aS'-I/Applications/Arduino.app/Contents/Resources/Java/libraries/Robot_Control/arch/avr'
p32
aS'-I/Applications/Arduino.app/Contents/Resources/Java/libraries/Robot_Control/arch/avr/utility'
p33
aS'-I/Applications/Arduino.app/Contents/Resources/Java/libraries/Robot_Control/arch/avr/utility'
p34
aS'-I/Applications/Arduino.app/Contents/Resources/Java/hardware/arduino/avr/cores/arduino'
p35
aS'-I/Applications/Arduino.app/Contents/Resources/Java/hardware/arduino/avr/cores/arduino/avr-libc'
p36
atp37
Rp38
tp39
a(S'arduino_variants_dir'
p40
S'/Applications/Arduino.app/Contents/Resources/Java/hardware/arduino/avr/variants'
p41
tp42
a(S'version.txt'
p43
S'/Applications/Arduino.app/Contents/Resources/Java/lib/version.txt'
p44
tp45
a(S'used_libs'
p46
(lp47
S'lib/TinyGPSPlus'
p48
aS'lib/Rowind'
p49
aS'lib/Types'
p50
aS'lib/HMC6343'
p51
aS'/Applications/Arduino.app/Contents/Resources/Java/libraries/Servo'
p52
aS'/Applications/Arduino.app/Contents/Resources/Java/libraries/SoftwareSerial'
p53
aS'/Applications/Arduino.app/Contents/Resources/Java/libraries/Robot_Control'
p54
aS'/Applications/Arduino.app/Contents/Resources/Java/hardware/arduino/avr/cores/arduino'
p55
atp56
a(S'cxx'
p57
S'/Applications/Arduino.app/Contents/Resources/Java/hardware/tools/avr/bin/avr-g++'
p58
tp59
a(S'make'
p60
S'/Applications/Arduino.app/Contents/Resources/Java/hardware/tools/avr/bin/make'
p61
tp62
a(S'build_dir'
p63
S'.build/uno'
p64
tp65
a(S'arduino_core_dir'
p66
g55
tp67
a(S'boards.txt'
p68
(lp69
S'/Applications/Arduino.app/Contents/Resources/Java/hardware/arduino/boards.txt'
p70
aS'/Applications/Arduino.app/Contents/Resources/Java/hardware/arduino/avr/boards.txt'
p71
aS'/Applications/Arduino.app/Contents/Resources/Java/hardware/arduino/sam/boards.txt'
p72
atp73
a(S'cxxflags'
p74
g2
(g3
g4
(lp75
S'-fno-exceptions'
p76
atp77
Rp78
tp79
a(S'cc'
p80
S'/Applications/Arduino.app/Contents/Resources/Java/hardware/tools/avr/bin/avr-gcc'
p81
tp82
a(S'deps'
p83
g2
(g3
g4
(lp84
S'.build/uno/src/dependencies.d'
p85
aS'.build/uno/Robot_Control/dependencies.d'
p86
aS'.build/uno/TinyGPSPlus/dependencies.d'
p87
aS'.build/uno/Rowind/dependencies.d'
p88
aS'.build/uno/arduino/dependencies.d'
p89
aS'.build/uno/Types/dependencies.d'
p90
aS'.build/uno/SoftwareSerial/dependencies.d'
p91
aS'.build/uno/HMC6343/dependencies.d'
p92
aS'.build/uno/Servo/dependencies.d'
p93
atp94
Rp95
tp96
a(S'ar'
p97
S'/Applications/Arduino.app/Contents/Resources/Java/hardware/tools/avr/bin/avr-ar'
p98
tp99
a(S'names'
p100
(dp101
S'cpp'
p102
S'%s.cpp'
p103
sS'obj'
p104
S'%s.o'
p105
sS'deps'
p106
S'%s.d'
p107
sS'lib'
p108
S'lib%s.a'
p109
stp110
a(S'cflags'
p111
g2
(g3
g4
(lp112
tp113
Rp114
tp115
a(S'arduino_libraries_dir'
p116
S'/Applications/Arduino.app/Contents/Resources/Java/libraries'
p117
tp118
a(S'arduino_lib_version'
p119
g2
(cino.environment
Version
p120
c__builtin__
tuple
p121
(I1
I5
I4
tp122
tp123
Rp124
tp125
a(S'objcopy'
p126
S'/Applications/Arduino.app/Contents/Resources/Java/hardware/tools/avr/bin/avr-objcopy'
p127
tp128
a(S'board_models'
p129
cino.environment
BoardModels
p130
((lp131
(lp132
S'menu'
p133
a(dp134
S'cpu'
p135
S'Processor'
p136
sS'_coredir'
p137
S'/Applications/Arduino.app/Contents/Resources/Java/hardware/arduino/avr'
p138
saa(lp139
S'yun'
p140
a(dp141
S'name'
p142
S'Arduino Y\xc3\xban'
p143
sS'vid'
p144
(dp145
S'1'
p146
S'0x2341'
p147
sS'0'
p148
S'0x2341'
p149
ssS'pid'
p150
(dp151
g146
S'0x8041'
p152
sg148
S'0x0041'
p153
ssS'upload'
p154
(dp155
S'protocol'
p156
S'avr109'
p157
sS'disable_flushing'
p158
S'true'
p159
sS'tool'
p160
S'avrdude'
p161
sS'maximum_data_size'
p162
S'2560'
p163
sS'via_ssh'
p164
S'true'
p165
sS'maximum_size'
p166
S'28672'
p167
sS'use_1200bps_touch'
p168
S'true'
p169
sS'speed'
p170
S'57600'
p171
sS'wait_for_upload_port'
p172
S'true'
p173
ssS'build'
p174
(dp175
S'core'
p176
S'arduino'
p177
sS'f_cpu'
p178
S'16000000L'
p179
sS'vid'
p180
S'0x2341'
p181
sS'usb_product'
p182
S'"Arduino Yun"'
p183
sS'pid'
p184
S'0x8041'
p185
sS'extra_flags'
p186
S'{build.usb_flags}'
p187
sS'board'
p188
S'AVR_YUN'
p189
sS'mcu'
p190
S'atmega32u4'
p191
sS'variant'
p192
S'leonardo'
p193
ssg137
S'/Applications/Arduino.app/Contents/Resources/Java/hardware/arduino/avr'
p194
sS'bootloader'
p195
(dp196
S'extended_fuses'
p197
S'0xcb'
p198
sS'high_fuses'
p199
S'0xd8'
p200
sS'low_fuses'
p201
S'0xff'
p202
sS'lock_bits'
p203
S'0x2F'
p204
sS'tool'
p205
S'avrdude'
p206
sS'file'
p207
S'caterina/Caterina-Yun.hex'
p208
sS'unlock_bits'
p209
S'0x3F'
p210
ssaa(lp211
S'uno'
p212
a(dp213
S'name'
p214
S'Arduino Uno'
p215
sS'vid'
p216
(dp217
g148
S'0x2341'
p218
ssS'pid'
p219
(dp220
g148
S'0x0043'
p221
ssS'upload'
p222
(dp223
S'speed'
p224
S'115200'
p225
sS'tool'
p226
S'avrdude'
p227
sS'protocol'
p228
S'arduino'
p229
sS'maximum_size'
p230
S'32256'
p231
sS'maximum_data_size'
p232
S'2048'
p233
ssS'build'
p234
(dp235
S'core'
p236
S'arduino'
p237
sS'mcu'
p238
S'atmega328p'
p239
sS'f_cpu'
p240
S'16000000L'
p241
sS'board'
p242
S'AVR_UNO'
p243
sS'variant'
p244
S'standard'
p245
ssg137
S'/Applications/Arduino.app/Contents/Resources/Java/hardware/arduino/avr'
p246
sS'bootloader'
p247
(dp248
S'extended_fuses'
p249
S'0x05'
p250
sS'high_fuses'
p251
S'0xDE'
p252
sS'low_fuses'
p253
S'0xFF'
p254
sS'lock_bits'
p255
S'0x0F'
p256
sS'tool'
p257
S'avrdude'
p258
sS'file'
p259
S'optiboot/optiboot_atmega328.hex'
p260
sS'unlock_bits'
p261
S'0x3F'
p262
ssaa(lp263
S'atmega328diecimila'
p264
a(dp265
S'name'
p266
S'Arduino Duemilanove or Diecimila'
p267
sS'menu'
p268
(dp269
S'cpu'
p270
(dp271
S'atmega168'
p272
(dp273
S'bootloader'
p274
(dp275
S'extended_fuses'
p276
S'0x00'
p277
sS'high_fuses'
p278
S'0xdd'
p279
sS'file'
p280
S'atmega/ATmegaBOOT_168_diecimila.hex'
p281
ssS'upload'
p282
(dp283
S'maximum_size'
p284
S'14336'
p285
sS'speed'
p286
S'19200'
p287
sS'maximum_data_size'
p288
S'1024'
p289
ssS'_'
p290
S'ATmega168'
p291
sS'build'
p292
(dp293
S'mcu'
p294
S'atmega168'
p295
sssS'atmega328'
p296
(dp297
S'bootloader'
p298
(dp299
S'extended_fuses'
p300
S'0x05'
p301
sS'high_fuses'
p302
S'0xDA'
p303
sS'file'
p304
S'atmega/ATmegaBOOT_168_atmega328.hex'
p305
ssS'upload'
p306
(dp307
S'maximum_size'
p308
S'30720'
p309
sS'speed'
p310
S'57600'
p311
sS'maximum_data_size'
p312
S'2048'
p313
ssg290
S'ATmega328'
p314
sS'build'
p315
(dp316
S'mcu'
p317
S'atmega328p'
p318
sssssS'upload'
p319
(dp320
S'tool'
p321
S'avrdude'
p322
sS'protocol'
p323
S'arduino'
p324
ssS'build'
p325
(dp326
S'core'
p327
S'arduino'
p328
sS'f_cpu'
p329
S'16000000L'
p330
sS'board'
p331
S'AVR_DUEMILANOVE'
p332
sS'variant'
p333
S'standard'
p334
ssg137
S'/Applications/Arduino.app/Contents/Resources/Java/hardware/arduino/avr'
p335
sS'bootloader'
p336
(dp337
S'low_fuses'
p338
S'0xFF'
p339
sS'lock_bits'
p340
S'0x0F'
p341
sS'tool'
p342
S'avrdude'
p343
sS'unlock_bits'
p344
S'0x3F'
p345
ssaa(lp346
S'nano'
p347
a(dp348
S'name'
p349
S'Arduino Nano'
p350
sS'menu'
p351
(dp352
S'cpu'
p353
(dp354
S'atmega168'
p355
(dp356
S'bootloader'
p357
(dp358
S'low_fuses'
p359
S'0xff'
p360
sS'extended_fuses'
p361
S'0x00'
p362
sS'high_fuses'
p363
S'0xdd'
p364
sS'file'
p365
S'atmega/ATmegaBOOT_168_diecimila.hex'
p366
ssS'upload'
p367
(dp368
S'maximum_size'
p369
S'14336'
p370
sS'speed'
p371
S'19200'
p372
sS'maximum_data_size'
p373
S'1024'
p374
ssg290
S'ATmega168'
p375
sS'build'
p376
(dp377
S'mcu'
p378
S'atmega168'
p379
sssS'atmega328'
p380
(dp381
S'bootloader'
p382
(dp383
S'low_fuses'
p384
S'0xFF'
p385
sS'extended_fuses'
p386
S'0x05'
p387
sS'high_fuses'
p388
S'0xDA'
p389
sS'file'
p390
S'atmega/ATmegaBOOT_168_atmega328.hex'
p391
ssS'upload'
p392
(dp393
S'maximum_size'
p394
S'30720'
p395
sS'speed'
p396
S'57600'
p397
sS'maximum_data_size'
p398
S'2048'
p399
ssg290
S'ATmega328'
p400
sS'build'
p401
(dp402
S'mcu'
p403
S'atmega328p'
p404
sssssS'upload'
p405
(dp406
S'tool'
p407
S'avrdude'
p408
sS'protocol'
p409
S'arduino'
p410
ssS'build'
p411
(dp412
S'core'
p413
S'arduino'
p414
sS'f_cpu'
p415
S'16000000L'
p416
sS'board'
p417
S'AVR_NANO'
p418
sS'variant'
p419
S'eightanaloginputs'
p420
ssg137
S'/Applications/Arduino.app/Contents/Resources/Java/hardware/arduino/avr'
p421
sS'bootloader'
p422
(dp423
S'lock_bits'
p424
S'0x0F'
p425
sS'tool'
p426
S'avrdude'
p427
sS'unlock_bits'
p428
S'0x3F'
p429
ssaa(lp430
S'mega2560'
p431
a(dp432
S'name'
p433
S'Arduino Mega 2560 or Mega ADK'
p434
sS'vid'
p435
(dp436
g146
S'0x2341'
p437
sg148
S'0x2341'
p438
ssS'pid'
p439
(dp440
g146
S'0x003f'
p441
sg148
S'0x0044'
p442
ssS'upload'
p443
(dp444
S'speed'
p445
S'115200'
p446
sS'tool'
p447
S'avrdude'
p448
sS'protocol'
p449
S'wiring'
p450
sS'maximum_size'
p451
S'258048'
p452
sS'maximum_data_size'
p453
S'8192'
p454
ssS'build'
p455
(dp456
S'core'
p457
S'arduino'
p458
sS'mcu'
p459
S'atmega2560'
p460
sS'f_cpu'
p461
S'16000000L'
p462
sS'board'
p463
S'AVR_MEGA2560'
p464
sS'variant'
p465
S'mega'
p466
ssg137
S'/Applications/Arduino.app/Contents/Resources/Java/hardware/arduino/avr'
p467
sS'bootloader'
p468
(dp469
S'extended_fuses'
p470
S'0xFD'
p471
sS'high_fuses'
p472
S'0xD8'
p473
sS'low_fuses'
p474
S'0xFF'
p475
sS'lock_bits'
p476
S'0x0F'
p477
sS'tool'
p478
S'avrdude'
p479
sS'file'
p480
S'stk500v2/stk500boot_v2_mega2560.hex'
p481
sS'unlock_bits'
p482
S'0x3F'
p483
ssS'cpu'
p484
S'2560 or ADK'
p485
saa(lp486
S'mega'
p487
a(dp488
S'name'
p489
S'Arduino Mega (ATmega1280)'
p490
sS'upload'
p491
(dp492
S'speed'
p493
S'57600'
p494
sS'tool'
p495
S'avrdude'
p496
sS'protocol'
p497
S'arduino'
p498
sS'maximum_size'
p499
S'126976'
p500
sS'maximum_data_size'
p501
S'8192'
p502
ssS'build'
p503
(dp504
S'core'
p505
S'arduino'
p506
sS'mcu'
p507
S'atmega1280'
p508
sS'f_cpu'
p509
S'16000000L'
p510
sS'board'
p511
S'AVR_MEGA'
p512
sS'variant'
p513
S'mega'
p514
ssg137
S'/Applications/Arduino.app/Contents/Resources/Java/hardware/arduino/avr'
p515
sS'bootloader'
p516
(dp517
S'extended_fuses'
p518
S'0xF5'
p519
sS'high_fuses'
p520
S'0xDA'
p521
sS'low_fuses'
p522
S'0xFF'
p523
sS'lock_bits'
p524
S'0x0F'
p525
sS'tool'
p526
S'avrdude'
p527
sS'file'
p528
S'atmega/ATmegaBOOT_168_atmega1280.hex'
p529
sS'unlock_bits'
p530
S'0x3F'
p531
ssS'cpu'
p532
S'ATmega1280'
p533
saa(lp534
S'leonardo'
p535
a(dp536
S'name'
p537
S'Arduino Leonardo'
p538
sS'vid'
p539
(dp540
g146
S'0x2341'
p541
sg148
S'0x2341'
p542
ssS'pid'
p543
(dp544
g146
S'0x8036'
p545
sg148
S'0x0036'
p546
ssS'upload'
p547
(dp548
S'protocol'
p549
S'avr109'
p550
sS'disable_flushing'
p551
S'true'
p552
sS'tool'
p553
S'avrdude'
p554
sS'maximum_data_size'
p555
S'2560'
p556
sS'maximum_size'
p557
S'28672'
p558
sS'use_1200bps_touch'
p559
S'true'
p560
sS'speed'
p561
S'57600'
p562
sS'wait_for_upload_port'
p563
S'true'
p564
ssS'build'
p565
(dp566
S'core'
p567
S'arduino'
p568
sS'f_cpu'
p569
S'16000000L'
p570
sS'vid'
p571
S'0x2341'
p572
sS'usb_product'
p573
S'"Arduino Leonardo"'
p574
sS'pid'
p575
S'0x8036'
p576
sS'extra_flags'
p577
S'{build.usb_flags}'
p578
sS'board'
p579
S'AVR_LEONARDO'
p580
sS'mcu'
p581
S'atmega32u4'
p582
sS'variant'
p583
S'leonardo'
p584
ssg137
S'/Applications/Arduino.app/Contents/Resources/Java/hardware/arduino/avr'
p585
sS'bootloader'
p586
(dp587
S'extended_fuses'
p588
S'0xcb'
p589
sS'high_fuses'
p590
S'0xd8'
p591
sS'low_fuses'
p592
S'0xff'
p593
sS'lock_bits'
p594
S'0x2F'
p595
sS'tool'
p596
S'avrdude'
p597
sS'file'
p598
S'caterina/Caterina-Leonardo.hex'
p599
sS'unlock_bits'
p600
S'0x3F'
p601
ssaa(lp602
S'micro'
p603
a(dp604
S'bootloader'
p605
(dp606
S'extended_fuses'
p607
S'0xcb'
p608
sS'high_fuses'
p609
S'0xd8'
p610
sS'low_fuses'
p611
S'0xff'
p612
sS'lock_bits'
p613
S'0x2F'
p614
sS'tool'
p615
S'avrdude'
p616
sS'file'
p617
S'caterina/Caterina-Micro.hex'
p618
sS'unlock_bits'
p619
S'0x3F'
p620
ssS'upload'
p621
(dp622
S'protocol'
p623
S'avr109'
p624
sS'disable_flushing'
p625
S'true'
p626
sS'tool'
p627
S'avrdude'
p628
sS'maximum_data_size'
p629
S'2560'
p630
sS'maximum_size'
p631
S'28672'
p632
sS'use_1200bps_touch'
p633
S'true'
p634
sS'speed'
p635
S'57600'
p636
sS'wait_for_upload_port'
p637
S'true'
p638
ssS'build'
p639
(dp640
S'core'
p641
S'arduino'
p642
sS'f_cpu'
p643
S'16000000L'
p644
sS'vid'
p645
S'0x2341'
p646
sS'usb_product'
p647
S'"Arduino Micro"'
p648
sS'pid'
p649
S'0x8037'
p650
sS'extra_flags'
p651
S'{build.usb_flags}'
p652
sS'board'
p653
S'AVR_MICRO'
p654
sS'mcu'
p655
S'atmega32u4'
p656
sS'variant'
p657
S'micro'
p658
ssS'name'
p659
S'Arduino Micro'
p660
sg137
S'/Applications/Arduino.app/Contents/Resources/Java/hardware/arduino/avr'
p661
saa(lp662
S'esplora'
p663
a(dp664
S'name'
p665
S'Arduino Esplora'
p666
sS'vid'
p667
(dp668
g146
S'0x2341'
p669
sg148
S'0x2341'
p670
ssS'pid'
p671
(dp672
g146
S'0x803c'
p673
sg148
S'0x003c'
p674
ssS'upload'
p675
(dp676
S'protocol'
p677
S'avr109'
p678
sS'disable_flushing'
p679
S'true'
p680
sS'tool'
p681
S'avrdude'
p682
sS'maximum_data_size'
p683
S'2560'
p684
sS'maximum_size'
p685
S'28672'
p686
sS'use_1200bps_touch'
p687
S'true'
p688
sS'speed'
p689
S'57600'
p690
sS'wait_for_upload_port'
p691
S'true'
p692
ssS'build'
p693
(dp694
S'core'
p695
S'arduino'
p696
sS'f_cpu'
p697
S'16000000L'
p698
sS'vid'
p699
S'0x2341'
p700
sS'usb_product'
p701
S'"Arduino Esplora"'
p702
sS'pid'
p703
S'0x803c'
p704
sS'extra_flags'
p705
S'{build.usb_flags}'
p706
sS'board'
p707
S'AVR_ESPLORA'
p708
sS'mcu'
p709
S'atmega32u4'
p710
sS'variant'
p711
S'leonardo'
p712
ssg137
S'/Applications/Arduino.app/Contents/Resources/Java/hardware/arduino/avr'
p713
sS'bootloader'
p714
(dp715
S'extended_fuses'
p716
S'0xcb'
p717
sS'high_fuses'
p718
S'0xd8'
p719
sS'low_fuses'
p720
S'0xff'
p721
sS'lock_bits'
p722
S'0x2F'
p723
sS'tool'
p724
S'avrdude'
p725
sS'file'
p726
S'caterina/Caterina-Esplora.hex'
p727
sS'unlock_bits'
p728
S'0x3F'
p729
ssaa(lp730
S'mini'
p731
a(dp732
S'name'
p733
S'Arduino Mini'
p734
sS'menu'
p735
(dp736
S'cpu'
p737
(dp738
S'atmega168'
p739
(dp740
S'bootloader'
p741
(dp742
S'extended_fuses'
p743
S'0x00'
p744
sS'high_fuses'
p745
S'0xdd'
p746
sS'file'
p747
S'atmega/ATmegaBOOT_168_ng.hex'
p748
ssS'upload'
p749
(dp750
S'maximum_size'
p751
S'14336'
p752
sS'speed'
p753
S'19200'
p754
sS'maximum_data_size'
p755
S'1024'
p756
ssg290
S'ATmega168'
p757
sS'build'
p758
(dp759
S'mcu'
p760
S'atmega168'
p761
sssS'atmega328'
p762
(dp763
S'bootloader'
p764
(dp765
S'extended_fuses'
p766
S'0x05'
p767
sS'high_fuses'
p768
S'0xd8'
p769
sS'file'
p770
S'optiboot/optiboot_atmega328-Mini.hex'
p771
ssS'upload'
p772
(dp773
S'maximum_size'
p774
S'28672'
p775
sS'speed'
p776
S'115200'
p777
sS'maximum_data_size'
p778
S'2048'
p779
ssg290
S'ATmega328'
p780
sS'build'
p781
(dp782
S'mcu'
p783
S'atmega328p'
p784
sssssS'upload'
p785
(dp786
S'tool'
p787
S'avrdude'
p788
sS'protocol'
p789
S'arduino'
p790
ssS'build'
p791
(dp792
S'core'
p793
S'arduino'
p794
sS'f_cpu'
p795
S'16000000L'
p796
sS'board'
p797
S'AVR_MINI'
p798
sS'variant'
p799
S'eightanaloginputs'
p800
ssg137
S'/Applications/Arduino.app/Contents/Resources/Java/hardware/arduino/avr'
p801
sS'bootloader'
p802
(dp803
S'low_fuses'
p804
S'0xff'
p805
sS'lock_bits'
p806
S'0x0F'
p807
sS'tool'
p808
S'avrdude'
p809
sS'unlock_bits'
p810
S'0x3F'
p811
ssaa(lp812
S'ethernet'
p813
a(dp814
S'bootloader'
p815
(dp816
S'extended_fuses'
p817
S'0x05'
p818
sS'high_fuses'
p819
S'0xde'
p820
sS'low_fuses'
p821
S'0xff'
p822
sS'lock_bits'
p823
S'0x0F'
p824
sS'tool'
p825
S'avrdude'
p826
sS'file'
p827
S'optiboot/optiboot_atmega328.hex'
p828
sS'unlock_bits'
p829
S'0x3F'
p830
ssS'upload'
p831
(dp832
S'speed'
p833
S'115200'
p834
sS'tool'
p835
S'avrdude'
p836
sS'protocol'
p837
S'arduino'
p838
sS'maximum_size'
p839
S'32256'
p840
sS'maximum_data_size'
p841
S'2048'
p842
ssS'build'
p843
(dp844
S'f_cpu'
p845
S'16000000L'
p846
sS'mcu'
p847
S'atmega328p'
p848
sS'variant'
p849
S'standard'
p850
sS'board'
p851
S'AVR_ETHERNET'
p852
sS'core'
p853
S'arduino'
p854
ssS'name'
p855
S'Arduino Ethernet'
p856
sg137
S'/Applications/Arduino.app/Contents/Resources/Java/hardware/arduino/avr'
p857
saa(lp858
S'fio'
p859
a(dp860
S'bootloader'
p861
(dp862
S'extended_fuses'
p863
S'0x05'
p864
sS'high_fuses'
p865
S'0xDA'
p866
sS'low_fuses'
p867
S'0xFF'
p868
sS'lock_bits'
p869
S'0x0F'
p870
sS'tool'
p871
S'avrdude'
p872
sS'file'
p873
S'atmega/ATmegaBOOT_168_atmega328_pro_8MHz.hex'
p874
sS'unlock_bits'
p875
S'0x3F'
p876
ssS'upload'
p877
(dp878
S'speed'
p879
S'57600'
p880
sS'tool'
p881
S'avrdude'
p882
sS'protocol'
p883
S'arduino'
p884
sS'maximum_size'
p885
S'30720'
p886
sS'maximum_data_size'
p887
S'2048'
p888
ssS'build'
p889
(dp890
S'core'
p891
S'arduino'
p892
sS'mcu'
p893
S'atmega328p'
p894
sS'f_cpu'
p895
S'8000000L'
p896
sS'board'
p897
S'AVR_FIO'
p898
sS'variant'
p899
S'eightanaloginputs'
p900
ssS'name'
p901
S'Arduino Fio'
p902
sg137
S'/Applications/Arduino.app/Contents/Resources/Java/hardware/arduino/avr'
p903
saa(lp904
S'bt'
p905
a(dp906
S'name'
p907
S'Arduino BT'
p908
sS'menu'
p909
(dp910
S'cpu'
p911
(dp912
S'atmega168'
p913
(dp914
S'bootloader'
p915
(dp916
S'extended_fuses'
p917
S'0x00'
p918
sS'high_fuses'
p919
S'0xdd'
p920
sS'file'
p921
S'bt/ATmegaBOOT_168.hex'
p922
ssS'upload'
p923
(dp924
S'maximum_size'
p925
S'14336'
p926
sS'maximum_data_size'
p927
S'1024'
p928
ssg290
S'ATmega168'
p929
sS'build'
p930
(dp931
S'mcu'
p932
S'atmega168'
p933
sssS'atmega328'
p934
(dp935
S'bootloader'
p936
(dp937
S'extended_fuses'
p938
S'0x05'
p939
sS'high_fuses'
p940
S'0xd8'
p941
sS'file'
p942
S'bt/ATmegaBOOT_168_atmega328_bt.hex'
p943
ssS'upload'
p944
(dp945
S'maximum_size'
p946
S'28672'
p947
sS'maximum_data_size'
p948
S'2048'
p949
ssg290
S'ATmega328'
p950
sS'build'
p951
(dp952
S'mcu'
p953
S'atmega328p'
p954
sssssS'upload'
p955
(dp956
S'speed'
p957
S'19200'
p958
sS'tool'
p959
S'avrdude'
p960
sS'protocol'
p961
S'arduino'
p962
sS'disable_flushing'
p963
S'true'
p964
ssS'build'
p965
(dp966
S'core'
p967
S'arduino'
p968
sS'f_cpu'
p969
S'16000000L'
p970
sS'board'
p971
S'AVR_BT'
p972
sS'variant'
p973
S'eightanaloginputs'
p974
ssg137
S'/Applications/Arduino.app/Contents/Resources/Java/hardware/arduino/avr'
p975
sS'bootloader'
p976
(dp977
S'low_fuses'
p978
S'0xff'
p979
sS'lock_bits'
p980
S'0x0F'
p981
sS'tool'
p982
S'avrdude'
p983
sS'unlock_bits'
p984
S'0x3F'
p985
ssaa(lp986
S'LilyPadUSB'
p987
a(dp988
S'bootloader'
p989
(dp990
S'extended_fuses'
p991
S'0xce'
p992
sS'high_fuses'
p993
S'0xd8'
p994
sS'low_fuses'
p995
S'0xff'
p996
sS'lock_bits'
p997
S'0x2F'
p998
sS'tool'
p999
S'avrdude'
p1000
sS'file'
p1001
S'caterina-LilyPadUSB/Caterina-LilyPadUSB.hex'
p1002
sS'unlock_bits'
p1003
S'0x3F'
p1004
ssS'upload'
p1005
(dp1006
S'protocol'
p1007
S'avr109'
p1008
sS'disable_flushing'
p1009
S'true'
p1010
sS'tool'
p1011
S'avrdude'
p1012
sS'maximum_data_size'
p1013
S'2560'
p1014
sS'maximum_size'
p1015
S'28672'
p1016
sS'use_1200bps_touch'
p1017
S'true'
p1018
sS'speed'
p1019
S'57600'
p1020
sS'wait_for_upload_port'
p1021
S'true'
p1022
ssS'build'
p1023
(dp1024
S'core'
p1025
S'arduino'
p1026
sS'f_cpu'
p1027
S'8000000L'
p1028
sS'vid'
p1029
S'0x1B4F'
p1030
sS'usb_product'
p1031
S'"LilyPad USB"'
p1032
sS'pid'
p1033
S'0x9208'
p1034
sS'extra_flags'
p1035
S'{build.usb_flags}'
p1036
sS'board'
p1037
S'AVR_LILYPAD_USB'
p1038
sS'mcu'
p1039
S'atmega32u4'
p1040
sS'variant'
p1041
S'leonardo'
p1042
ssS'name'
p1043
S'LilyPad Arduino USB'
p1044
sg137
S'/Applications/Arduino.app/Contents/Resources/Java/hardware/arduino/avr'
p1045
saa(lp1046
S'lilypad'
p1047
a(dp1048
S'name'
p1049
S'LilyPad Arduino'
p1050
sS'menu'
p1051
(dp1052
S'cpu'
p1053
(dp1054
S'atmega168'
p1055
(dp1056
S'bootloader'
p1057
(dp1058
S'low_fuses'
p1059
S'0xe2'
p1060
sS'extended_fuses'
p1061
S'0x00'
p1062
sS'high_fuses'
p1063
S'0xdd'
p1064
sS'file'
p1065
S'lilypad/LilyPadBOOT_168.hex'
p1066
ssS'upload'
p1067
(dp1068
S'maximum_size'
p1069
S'14336'
p1070
sS'speed'
p1071
S'19200'
p1072
sS'maximum_data_size'
p1073
S'1024'
p1074
ssg290
S'ATmega168'
p1075
sS'build'
p1076
(dp1077
S'mcu'
p1078
S'atmega168'
p1079
sssS'atmega328'
p1080
(dp1081
S'bootloader'
p1082
(dp1083
S'low_fuses'
p1084
S'0xFF'
p1085
sS'extended_fuses'
p1086
S'0x05'
p1087
sS'high_fuses'
p1088
S'0xDA'
p1089
sS'file'
p1090
S'atmega/ATmegaBOOT_168_atmega328_pro_8MHz.hex'
p1091
ssS'upload'
p1092
(dp1093
S'maximum_size'
p1094
S'30720'
p1095
sS'speed'
p1096
S'57600'
p1097
sS'maximum_data_size'
p1098
S'2048'
p1099
ssg290
S'ATmega328'
p1100
sS'build'
p1101
(dp1102
S'mcu'
p1103
S'atmega328p'
p1104
sssssS'upload'
p1105
(dp1106
S'tool'
p1107
S'avrdude'
p1108
sS'protocol'
p1109
S'arduino'
p1110
ssS'build'
p1111
(dp1112
S'core'
p1113
S'arduino'
p1114
sS'f_cpu'
p1115
S'8000000L'
p1116
sS'board'
p1117
S'AVR_LILYPAD'
p1118
sS'variant'
p1119
S'standard'
p1120
ssg137
S'/Applications/Arduino.app/Contents/Resources/Java/hardware/arduino/avr'
p1121
sS'bootloader'
p1122
(dp1123
S'lock_bits'
p1124
S'0x0F'
p1125
sS'tool'
p1126
S'avrdude'
p1127
sS'unlock_bits'
p1128
S'0x3F'
p1129
ssaa(lp1130
S'pro'
p1131
a(dp1132
S'name'
p1133
S'Arduino Pro or Pro Mini'
p1134
sS'menu'
p1135
(dp1136
S'cpu'
p1137
(dp1138
S'16MHzatmega328'
p1139
(dp1140
S'bootloader'
p1141
(dp1142
S'low_fuses'
p1143
S'0xFF'
p1144
sS'extended_fuses'
p1145
S'0x05'
p1146
sS'high_fuses'
p1147
S'0xDA'
p1148
sS'file'
p1149
S'atmega/ATmegaBOOT_168_atmega328.hex'
p1150
ssS'upload'
p1151
(dp1152
S'maximum_size'
p1153
S'30720'
p1154
sS'speed'
p1155
S'57600'
p1156
sS'maximum_data_size'
p1157
S'2048'
p1158
ssg290
S'ATmega328 (5V, 16 MHz)'
p1159
sS'build'
p1160
(dp1161
S'mcu'
p1162
S'atmega328p'
p1163
sS'f_cpu'
p1164
S'16000000L'
p1165
sssS'8MHzatmega328'
p1166
(dp1167
S'bootloader'
p1168
(dp1169
S'low_fuses'
p1170
S'0xFF'
p1171
sS'extended_fuses'
p1172
S'0x05'
p1173
sS'high_fuses'
p1174
S'0xDA'
p1175
sS'file'
p1176
S'atmega/ATmegaBOOT_168_atmega328_pro_8MHz.hex'
p1177
ssS'upload'
p1178
(dp1179
S'maximum_size'
p1180
S'30720'
p1181
sS'speed'
p1182
S'57600'
p1183
sS'maximum_data_size'
p1184
S'2048'
p1185
ssg290
S'ATmega328 (3.3V, 8 MHz)'
p1186
sS'build'
p1187
(dp1188
S'mcu'
p1189
S'atmega328p'
p1190
sS'f_cpu'
p1191
S'8000000L'
p1192
sssS'8MHzatmega168'
p1193
(dp1194
S'bootloader'
p1195
(dp1196
S'low_fuses'
p1197
S'0xc6'
p1198
sS'extended_fuses'
p1199
S'0x00'
p1200
sS'high_fuses'
p1201
S'0xdd'
p1202
sS'file'
p1203
S'atmega/ATmegaBOOT_168_pro_8MHz.hex'
p1204
ssS'upload'
p1205
(dp1206
S'maximum_size'
p1207
S'14336'
p1208
sS'speed'
p1209
S'19200'
p1210
sS'maximum_data_size'
p1211
S'1024'
p1212
ssg290
S'ATmega168 (3.3V, 8 MHz)'
p1213
sS'build'
p1214
(dp1215
S'mcu'
p1216
S'atmega168'
p1217
sS'f_cpu'
p1218
S'8000000L'
p1219
sssS'16MHzatmega168'
p1220
(dp1221
S'bootloader'
p1222
(dp1223
S'low_fuses'
p1224
S'0xff'
p1225
sS'extended_fuses'
p1226
S'0x00'
p1227
sS'high_fuses'
p1228
S'0xdd'
p1229
sS'file'
p1230
S'atmega/ATmegaBOOT_168_diecimila.hex'
p1231
ssS'upload'
p1232
(dp1233
S'maximum_size'
p1234
S'14336'
p1235
sS'speed'
p1236
S'19200'
p1237
sS'maximum_data_size'
p1238
S'1024'
p1239
ssg290
S'ATmega168 (5V, 16 MHz)'
p1240
sS'build'
p1241
(dp1242
S'mcu'
p1243
S'atmega168'
p1244
sS'f_cpu'
p1245
S'16000000L'
p1246
sssssS'upload'
p1247
(dp1248
S'tool'
p1249
S'avrdude'
p1250
sS'protocol'
p1251
S'arduino'
p1252
ssS'build'
p1253
(dp1254
S'core'
p1255
S'arduino'
p1256
sS'variant'
p1257
S'standard'
p1258
sS'board'
p1259
S'AVR_PRO'
p1260
ssg137
S'/Applications/Arduino.app/Contents/Resources/Java/hardware/arduino/avr'
p1261
sS'bootloader'
p1262
(dp1263
S'lock_bits'
p1264
S'0x0F'
p1265
sS'tool'
p1266
S'avrdude'
p1267
sS'unlock_bits'
p1268
S'0x3F'
p1269
ssaa(lp1270
S'atmegang'
p1271
a(dp1272
S'name'
p1273
S'Arduino NG or older'
p1274
sS'menu'
p1275
(dp1276
S'cpu'
p1277
(dp1278
S'atmega168'
p1279
(dp1280
S'bootloader'
p1281
(dp1282
S'low_fuses'
p1283
S'0xff'
p1284
sS'extended_fuses'
p1285
S'0x00'
p1286
sS'high_fuses'
p1287
S'0xdd'
p1288
sS'file'
p1289
S'atmega/ATmegaBOOT_168_ng.hex'
p1290
ssS'upload'
p1291
(dp1292
S'maximum_size'
p1293
S'14336'
p1294
sS'maximum_data_size'
p1295
S'1024'
p1296
ssg290
S'ATmega168'
p1297
sS'build'
p1298
(dp1299
S'mcu'
p1300
S'atmega168'
p1301
sssS'atmega8'
p1302
(dp1303
S'bootloader'
p1304
(dp1305
S'low_fuses'
p1306
S'0xdf'
p1307
sS'high_fuses'
p1308
S'0xca'
p1309
sS'file'
p1310
S'atmega8/ATmegaBOOT-prod-firmware-2009-11-07.hex'
p1311
ssS'upload'
p1312
(dp1313
S'maximum_size'
p1314
S'7168'
p1315
sS'maximum_data_size'
p1316
S'1024'
p1317
ssg290
S'ATmega8'
p1318
sS'build'
p1319
(dp1320
S'mcu'
p1321
S'atmega8'
p1322
sssssS'upload'
p1323
(dp1324
S'speed'
p1325
S'19200'
p1326
sS'tool'
p1327
S'avrdude'
p1328
sS'protocol'
p1329
S'arduino'
p1330
ssS'build'
p1331
(dp1332
S'core'
p1333
S'arduino'
p1334
sS'mcu'
p1335
S'atmegang'
p1336
sS'f_cpu'
p1337
S'16000000L'
p1338
sS'board'
p1339
S'AVR_NG'
p1340
sS'variant'
p1341
S'standard'
p1342
ssg137
S'/Applications/Arduino.app/Contents/Resources/Java/hardware/arduino/avr'
p1343
sS'bootloader'
p1344
(dp1345
S'lock_bits'
p1346
S'0x0F'
p1347
sS'tool'
p1348
S'avrdude'
p1349
sS'unlock_bits'
p1350
S'0x3F'
p1351
ssaa(lp1352
S'robotControl'
p1353
a(dp1354
S'bootloader'
p1355
(dp1356
S'extended_fuses'
p1357
S'0xcb'
p1358
sS'high_fuses'
p1359
S'0xd8'
p1360
sS'low_fuses'
p1361
S'0xff'
p1362
sS'lock_bits'
p1363
S'0x2F'
p1364
sS'tool'
p1365
S'avrdude'
p1366
sS'file'
p1367
S'caterina-Arduino_Robot/Caterina-Robot-Control.hex'
p1368
sS'unlock_bits'
p1369
S'0x3F'
p1370
ssS'upload'
p1371
(dp1372
S'protocol'
p1373
S'avr109'
p1374
sS'disable_flushing'
p1375
S'true'
p1376
sS'tool'
p1377
S'avrdude'
p1378
sS'maximum_size'
p1379
S'28672'
p1380
sS'use_1200bps_touch'
p1381
S'true'
p1382
sS'speed'
p1383
S'57600'
p1384
sS'data_size'
p1385
S'2560'
p1386
sS'wait_for_upload_port'
p1387
S'true'
p1388
ssS'build'
p1389
(dp1390
S'core'
p1391
S'arduino'
p1392
sS'f_cpu'
p1393
S'16000000L'
p1394
sS'vid'
p1395
S'0x2341'
p1396
sS'usb_product'
p1397
S'"Robot Control"'
p1398
sS'pid'
p1399
S'0x8038'
p1400
sS'extra_flags'
p1401
S'{build.usb_flags}'
p1402
sS'board'
p1403
S'AVR_ROBOT_CONTROL'
p1404
sS'mcu'
p1405
S'atmega32u4'
p1406
sS'variant'
p1407
S'robot_control'
p1408
ssS'name'
p1409
S'Arduino Robot Control'
p1410
sg137
S'/Applications/Arduino.app/Contents/Resources/Java/hardware/arduino/avr'
p1411
saa(lp1412
S'robotMotor'
p1413
a(dp1414
S'bootloader'
p1415
(dp1416
S'extended_fuses'
p1417
S'0xcb'
p1418
sS'high_fuses'
p1419
S'0xd8'
p1420
sS'low_fuses'
p1421
S'0xff'
p1422
sS'lock_bits'
p1423
S'0x2F'
p1424
sS'tool'
p1425
S'avrdude'
p1426
sS'file'
p1427
S'caterina-Arduino_Robot/Caterina-Robot-Motor.hex'
p1428
sS'unlock_bits'
p1429
S'0x3F'
p1430
ssS'upload'
p1431
(dp1432
S'protocol'
p1433
S'avr109'
p1434
sS'disable_flushing'
p1435
S'true'
p1436
sS'tool'
p1437
S'avrdude'
p1438
sS'maximum_size'
p1439
S'28672'
p1440
sS'use_1200bps_touch'
p1441
S'true'
p1442
sS'speed'
p1443
S'57600'
p1444
sS'data_size'
p1445
S'2560'
p1446
sS'wait_for_upload_port'
p1447
S'true'
p1448
ssS'build'
p1449
(dp1450
S'core'
p1451
S'arduino'
p1452
sS'f_cpu'
p1453
S'16000000L'
p1454
sS'vid'
p1455
S'0x2341'
p1456
sS'usb_product'
p1457
S'"Robot Motor"'
p1458
sS'pid'
p1459
S'0x8039'
p1460
sS'extra_flags'
p1461
S'{build.usb_flags}'
p1462
sS'board'
p1463
S'AVR_ROBOT_MOTOR'
p1464
sS'mcu'
p1465
S'atmega32u4'
p1466
sS'variant'
p1467
S'robot_motor'
p1468
ssS'name'
p1469
S'Arduino Robot Motor'
p1470
sg137
S'/Applications/Arduino.app/Contents/Resources/Java/hardware/arduino/avr'
p1471
saa(lp1472
S'arduino_due_x_dbg'
p1473
a(dp1474
S'name'
p1475
S'Arduino Due (Programming Port)'
p1476
sS'vid'
p1477
(dp1478
g148
S'0x2341'
p1479
ssS'pid'
p1480
(dp1481
g146
S'0x003d'
p1482
ssS'upload'
p1483
(dp1484
S'protocol'
p1485
S'sam-ba'
p1486
sS'wait_for_upload_port'
p1487
S'false'
p1488
sS'tool'
p1489
S'bossac'
p1490
sS'native_usb'
p1491
S'false'
p1492
sS'maximum_size'
p1493
S'524288'
p1494
sS'use_1200bps_touch'
p1495
S'true'
p1496
ssS'build'
p1497
(dp1498
S'core'
p1499
S'arduino'
p1500
sS'f_cpu'
p1501
S'84000000L'
p1502
sS'vid'
p1503
S'0x2341'
p1504
sS'pid'
p1505
S'0x003e'
p1506
sS'variant'
p1507
S'arduino_due_x'
p1508
sS'extra_flags'
p1509
S'-D__SAM3X8E__ -mthumb {build.usb_flags}'
p1510
sS'variant_system_lib'
p1511
S'libsam_sam3x8e_gcc_rel.a'
p1512
sS'usb_product'
p1513
S'"Arduino Due"'
p1514
sS'board'
p1515
S'SAM_DUE'
p1516
sS'ldscript'
p1517
S'linker_scripts/gcc/flash.ld'
p1518
sS'mcu'
p1519
S'cortex-m3'
p1520
ssg137
S'/Applications/Arduino.app/Contents/Resources/Java/hardware/arduino/sam'
p1521
saa(lp1522
S'arduino_due_x'
p1523
a(dp1524
S'name'
p1525
S'Arduino Due (Native USB Port)'
p1526
sS'vid'
p1527
(dp1528
g148
S'0x2341'
p1529
ssS'pid'
p1530
(dp1531
g148
S'0x003e'
p1532
ssS'upload'
p1533
(dp1534
S'protocol'
p1535
S'sam-ba'
p1536
sS'wait_for_upload_port'
p1537
S'true'
p1538
sS'tool'
p1539
S'bossac'
p1540
sS'native_usb'
p1541
S'true'
p1542
sS'maximum_size'
p1543
S'524288'
p1544
sS'use_1200bps_touch'
p1545
S'true'
p1546
ssS'build'
p1547
(dp1548
S'core'
p1549
S'arduino'
p1550
sS'f_cpu'
p1551
S'84000000L'
p1552
sS'vid'
p1553
S'0x2341'
p1554
sS'pid'
p1555
S'0x003e'
p1556
sS'variant'
p1557
S'arduino_due_x'
p1558
sS'extra_flags'
p1559
S'-D__SAM3X8E__ -mthumb {build.usb_flags}'
p1560
sS'variant_system_lib'
p1561
S'libsam_sam3x8e_gcc_rel.a'
p1562
sS'usb_product'
p1563
S'"Arduino Due"'
p1564
sS'board'
p1565
S'SAM_DUE'
p1566
sS'ldscript'
p1567
S'linker_scripts/gcc/flash.ld'
p1568
sS'mcu'
p1569
S'cortex-m3'
p1570
ssg137
S'/Applications/Arduino.app/Contents/Resources/Java/hardware/arduino/sam'
p1571
saatp1572
Rp1573
(dp1574
S'default'
p1575
S'uno'
p1576
sbtp1577
a(S'ldflags'
p1578
g2
(g3
g4
(lp1579
g6
aS'-Wl,-Os'
p1580
aS'-Wl,--gc-sections'
p1581
atp1582
Rp1583
tp1584
a.